target datalayout = "e-m:e-p270:32:32-p271:32:32-p272:64:64-i64:64-i128:128-f80:128-n8:16:32:64-S128"
target triple = "x86_64-pc-linux-gnu"

%struct.jvmtiInterface_1_ = type { ptr, ptr, ptr, ptr, ptr, ptr, ptr, ptr, ptr, ptr, ptr, ptr, ptr, ptr, ptr, ptr, ptr, ptr, ptr, ptr, ptr, ptr, ptr, ptr, ptr, ptr, ptr, ptr, ptr, ptr, ptr, ptr, ptr, ptr, ptr, ptr, ptr, ptr, ptr, ptr, ptr, ptr, ptr, ptr, ptr, ptr, ptr, ptr, ptr, ptr, ptr, ptr, ptr, ptr, ptr, ptr, ptr, ptr, ptr, ptr, ptr, ptr, ptr, ptr, ptr, ptr, ptr, ptr, ptr, ptr, ptr, ptr, ptr, ptr, ptr, ptr, ptr, ptr, ptr, ptr, ptr, ptr, ptr, ptr, ptr, ptr, ptr, ptr, ptr, ptr, ptr, ptr, ptr, ptr, ptr, ptr, ptr, ptr, ptr, ptr, ptr, ptr, ptr, ptr, ptr, ptr, ptr, ptr, ptr, ptr, ptr, ptr, ptr, ptr, ptr, ptr, ptr, ptr, ptr, ptr, ptr, ptr, ptr, ptr, ptr, ptr, ptr, ptr, ptr, ptr, ptr, ptr, ptr, ptr, ptr, ptr, ptr, ptr, ptr, ptr, ptr, ptr, ptr, ptr, ptr, ptr, ptr, ptr, ptr, ptr, ptr, ptr, ptr, ptr, ptr, ptr }
%struct._JPLISEnvironment = type { ptr, ptr, i8 }
%struct.jvmtiEventCallbacks = type { ptr, ptr, ptr, ptr, ptr, ptr, ptr, ptr, ptr, ptr, ptr, ptr, ptr, ptr, ptr, ptr, ptr, ptr, ptr, ptr, ptr, ptr, ptr, ptr, ptr, ptr, ptr, ptr, ptr, ptr, ptr, ptr, ptr, ptr, ptr, ptr, ptr, ptr, ptr }
%struct._JPLISAgent = type { ptr, %struct._JPLISEnvironment, %struct._JPLISEnvironment, ptr, ptr, ptr, ptr, i8, i8, i8, i8, ptr, ptr, ptr, i8 }

@.str = private unnamed_addr constant [31 x i8] c"jvmtierror == JVMTI_ERROR_NONE\00", align 1
@.str.1 = private unnamed_addr constant [60 x i8] c"src/java.instrument/share/native/libinstrument/JPLISAgent.c\00", align 1

; Function Attrs: nounwind uwtable
define hidden zeroext i8 @setLivePhaseEventHandlers(ptr noundef %0) #0 {
  %2 = alloca i8, align 1
  %3 = alloca ptr, align 8
  %4 = alloca %struct.jvmtiEventCallbacks, align 8
  %5 = alloca ptr, align 8
  %6 = alloca i32, align 4
  store ptr %0, ptr %3, align 8
  %7 = load ptr, ptr %3, align 8
  %8 = getelementptr inbounds %struct._JPLISAgent, ptr %7, i32 0, i32 1
  %9 = getelementptr inbounds %struct._JPLISEnvironment, ptr %8, i32 0, i32 0
  %10 = load ptr, ptr %9, align 8
  store ptr %10, ptr %5, align 8
  call void @llvm.memset.p0.i64(ptr align 8 %4, i8 0, i64 312, i1 false)
  %11 = getelementptr inbounds %struct.jvmtiEventCallbacks, ptr %4, i32 0, i32 4
  store ptr @eventHandlerClassFileLoadHook, ptr %11, align 8
  %12 = load ptr, ptr %5, align 8
  %13 = load ptr, ptr %12, align 8
  %14 = getelementptr inbounds %struct.jvmtiInterface_1_, ptr %13, i32 0, i32 121
  %15 = load ptr, ptr %14, align 8
  %16 = load ptr, ptr %5, align 8
  %17 = call i32 %15(ptr noundef %16, ptr noundef %4, i32 noundef 312)
  store i32 %17, ptr %6, align 4
  %18 = load i32, ptr %6, align 4
  %19 = icmp eq i32 %18, 112
  br i1 %19, label %20, label %21

20:                                               ; preds = %1
  store i8 0, ptr %2, align 1
  br label %48

21:                                               ; preds = %1
  %22 = load i32, ptr %6, align 4
  %23 = icmp eq i32 %22, 0
  %24 = zext i1 %23 to i32
  %25 = trunc i32 %24 to i8
  call void @JPLISAssertCondition(i8 noundef zeroext %25, ptr noundef @.str, ptr noundef @.str.1, i32 noundef 650)
  %26 = load i32, ptr %6, align 4
  %27 = icmp eq i32 %26, 0
  br i1 %27, label %28, label %43

28:                                               ; preds = %21
  %29 = load ptr, ptr %5, align 8
  %30 = load ptr, ptr %29, align 8
  %31 = getelementptr inbounds %struct.jvmtiInterface_1_, ptr %30, i32 0, i32 1
  %32 = load ptr, ptr %31, align 8
  %33 = load ptr, ptr %5, align 8
  %34 = call i32 (ptr, i32, i32, ptr, ...) %32(ptr noundef %33, i32 noundef 0, i32 noundef 50, ptr noundef null)
  store i32 %34, ptr %6, align 4
  %35 = load i32, ptr %6, align 4
  %36 = icmp eq i32 %35, 112
  br i1 %36, label %37, label %38

37:                                               ; preds = %28
  store i8 0, ptr %2, align 1
  br label %48

38:                                               ; preds = %28
  %39 = load i32, ptr %6, align 4
  %40 = icmp eq i32 %39, 0
  %41 = zext i1 %40 to i32
  %42 = trunc i32 %41 to i8
  call void @JPLISAssertCondition(i8 noundef zeroext %42, ptr noundef @.str, ptr noundef @.str.1, i32 noundef 661)
  br label %43

43:                                               ; preds = %38, %21
  %44 = load i32, ptr %6, align 4
  %45 = icmp eq i32 %44, 0
  %46 = zext i1 %45 to i32
  %47 = trunc i32 %46 to i8
  store i8 %47, ptr %2, align 1
  br label %48

48:                                               ; preds = %43, %37, %20
  %49 = load i8, ptr %2, align 1
  ret i8 %49
}