; Function Attrs: nounwind uwtable
define hidden zeroext range(i8 0, 2) i8 @setLivePhaseEventHandlers(ptr nocapture noundef readonly %0) local_unnamed_addr #0 {
  %2 = alloca %struct.jvmtiEventCallbacks, align 8
  %3 = getelementptr inbounds i8, ptr %0, i64 8
  %4 = load ptr, ptr %3, align 8
  call void @llvm.memset.p0.i64(ptr noundef nonnull align 8 dereferenceable(312) %2, i8 0, i64 312, i1 false)
  %5 = getelementptr inbounds i8, ptr %2, i64 32
  store ptr @eventHandlerClassFileLoadHook, ptr %5, align 8
  %6 = load ptr, ptr %4, align 8
  %7 = getelementptr inbounds i8, ptr %6, i64 968
  %8 = load ptr, ptr %7, align 8
  %9 = call i32 %8(ptr noundef nonnull %4, ptr noundef nonnull %2, i32 noundef 312) #10
  %10 = icmp eq i32 %9, 112
  br i1 %10, label %23, label %11

11:                                               ; preds = %1
  %12 = icmp eq i32 %9, 0
  %13 = zext i1 %12 to i8
  call void @JPLISAssertCondition(i8 noundef zeroext %13, ptr noundef nonnull @.str, ptr noundef nonnull @.str.1, i32 noundef 650) #10
  br i1 %12, label %14, label %23

14:                                               ; preds = %11
  %15 = load ptr, ptr %4, align 8
  %16 = getelementptr inbounds i8, ptr %15, i64 8
  %17 = load ptr, ptr %16, align 8
  %18 = call i32 (ptr, i32, i32, ptr, ...) %17(ptr noundef nonnull %4, i32 noundef 0, i32 noundef 50, ptr noundef null) #10
  %19 = icmp eq i32 %18, 112
  br i1 %19, label %23, label %20

20:                                               ; preds = %14
  %21 = icmp eq i32 %18, 0
  %22 = zext i1 %21 to i8
  call void @JPLISAssertCondition(i8 noundef zeroext %22, ptr noundef nonnull @.str, ptr noundef nonnull @.str.1, i32 noundef 661) #10
  br label %23

23:                                               ; preds = %11, %20, %14, %1
  %.011 = phi i8 [ 0, %1 ], [ 0, %14 ], [ %22, %20 ], [ 0, %11 ]
  ret i8 %.011
}